; Function Attrs: nounwind uwtable
define dso_local range(i32 -30, 2) i32 @archive_match_path_unmatched_inclusions_next(ptr noundef %0, ptr noundef writeonly captures(none) %1) local_unnamed_addr #0 {
  %3 = alloca ptr, align 8
  %4 = tail call i32 @__archive_check_magic(ptr noundef %0, i32 noundef 212668873, i32 noundef 1, ptr noundef nonnull @.str.15) #14
  %.not = icmp eq i32 %4, -30
  br i1 %.not, label %40, label %5

5:                                                ; preds = %2
  %6 = getelementptr inbounds nuw i8, ptr %0, i64 192
  %7 = getelementptr inbounds nuw i8, ptr %0, i64 224
  %8 = load i32, ptr %7, align 8, !tbaa !93
  %.not.i = icmp eq i32 %8, 0
  br i1 %.not.i, label %10, label %9

9:                                                ; preds = %5
  store i32 0, ptr %7, align 8, !tbaa !93
  br label %match_list_unmatched_inclusions_next.exit

10:                                               ; preds = %5
  %11 = getelementptr inbounds nuw i8, ptr %0, i64 216
  %12 = load ptr, ptr %11, align 8, !tbaa !94
  %13 = icmp eq ptr %12, null
  br i1 %13, label %14, label %.preheader

14:                                               ; preds = %10
  %15 = getelementptr inbounds nuw i8, ptr %0, i64 212
  %16 = load i32, ptr %15, align 4, !tbaa !87
  %17 = icmp eq i32 %16, 0
  br i1 %17, label %match_list_unmatched_inclusions_next.exit, label %18

18:                                               ; preds = %14
  %19 = load ptr, ptr %6, align 8, !tbaa !33
  store ptr %19, ptr %11, align 8, !tbaa !94
  br label %.preheader

.preheader:                                       ; preds = %18, %10
  br label %20

20:                                               ; preds = %.preheader, %21
  %.032.in.i = phi ptr [ %.032.i, %21 ], [ %11, %.preheader ]
  %.032.i = load ptr, ptr %.032.in.i, align 8, !tbaa !49
  %.not36.i = icmp eq ptr %.032.i, null
  br i1 %.not36.i, label %39, label %21

21:                                               ; preds = %20
  %22 = getelementptr inbounds nuw i8, ptr %.032.i, i64 8
  %23 = load i32, ptr %22, align 8, !tbaa !50
  %.not37.not.i = icmp eq i32 %23, 0
  br i1 %.not37.not.i, label %24, label %20, !llvm.loop !95

24:                                               ; preds = %21
  %25 = getelementptr inbounds nuw i8, ptr %.032.i, i64 16
  call void @llvm.lifetime.start.p0(i64 8, ptr nonnull %3) #14
  %26 = call i32 @archive_mstring_get_mbs(ptr noundef %0, ptr noundef nonnull %25, ptr noundef nonnull %3) #14
  %27 = icmp slt i32 %26, 0
  br i1 %27, label %28, label %.thread.i

28:                                               ; preds = %24
  %29 = tail call ptr @__errno_location() #15
  %30 = load i32, ptr %29, align 4, !tbaa !51
  %31 = icmp eq i32 %30, 12
  br i1 %31, label %36, label %.thread.i

.thread.i:                                        ; preds = %28, %24
  %32 = load ptr, ptr %3, align 8, !tbaa !52
  %33 = icmp eq ptr %32, null
  %spec.select.i = select i1 %33, ptr @.str.33, ptr %32
  call void @llvm.lifetime.end.p0(i64 8, ptr nonnull %3) #14
  %34 = load ptr, ptr %.032.i, align 8, !tbaa !35
  store ptr %34, ptr %11, align 8, !tbaa !94
  %35 = icmp eq ptr %34, null
  br i1 %35, label %38, label %match_list_unmatched_inclusions_next.exit

36:                                               ; preds = %28
  call void (ptr, i32, ptr, ...) @archive_set_error(ptr noundef %0, i32 noundef 12, ptr noundef nonnull @.str.32) #14
  %37 = getelementptr inbounds nuw i8, ptr %0, i64 4
  store i32 32768, ptr %37, align 4, !tbaa !27
  call void @llvm.lifetime.end.p0(i64 8, ptr nonnull %3) #14
  br label %match_list_unmatched_inclusions_next.exit

38:                                               ; preds = %.thread.i
  store i32 1, ptr %7, align 8, !tbaa !93
  br label %match_list_unmatched_inclusions_next.exit

39:                                               ; preds = %20
  store ptr null, ptr %11, align 8, !tbaa !94
  br label %match_list_unmatched_inclusions_next.exit

match_list_unmatched_inclusions_next.exit:        ; preds = %9, %14, %36, %.thread.i, %38, %39
  %.0 = phi ptr [ null, %14 ], [ null, %39 ], [ null, %36 ], [ %spec.select.i, %38 ], [ %spec.select.i, %.thread.i ], [ null, %9 ]
  %.033.i = phi i32 [ 1, %14 ], [ 1, %39 ], [ -30, %36 ], [ 0, %38 ], [ 0, %.thread.i ], [ 1, %9 ]
  store ptr %.0, ptr %1, align 8, !tbaa !52
  br label %40

40:                                               ; preds = %2, %match_list_unmatched_inclusions_next.exit
  %.1 = phi i32 [ %.033.i, %match_list_unmatched_inclusions_next.exit ], [ -30, %2 ]
  ret i32 %.1
}